; Function Attrs: nounwind uwtable
define internal ptr @getargs_z_hash(ptr readnone captures(none) %0, ptr noundef %1) #0 {
  %3 = alloca ptr, align 8
  %4 = alloca i64, align 8
  call void @llvm.lifetime.start.p0(i64 8, ptr nonnull %3) #7
  call void @llvm.lifetime.start.p0(i64 8, ptr nonnull %4) #7
  %5 = call i32 (ptr, ptr, ...) @PyArg_ParseTuple(ptr noundef %1, ptr noundef nonnull @.str.107, ptr noundef nonnull %3, ptr noundef nonnull %4) #7
  %.not = icmp eq i32 %5, 0
  br i1 %.not, label %11, label %6

6:                                                ; preds = %2
  %7 = load ptr, ptr %3, align 8, !tbaa !17
  %.not3 = icmp eq ptr %7, null
  br i1 %.not3, label %11, label %8

8:                                                ; preds = %6
  %9 = load i64, ptr %4, align 8, !tbaa !28
  %10 = call ptr @PyBytes_FromStringAndSize(ptr noundef nonnull %7, i64 noundef %9) #7
  br label %11

11:                                               ; preds = %6, %2, %8
  %.0 = phi ptr [ %10, %8 ], [ null, %2 ], [ @_Py_NoneStruct, %6 ]
  call void @llvm.lifetime.end.p0(i64 8, ptr nonnull %4) #7
  call void @llvm.lifetime.end.p0(i64 8, ptr nonnull %3) #7
  ret ptr %.0
}